; Function Attrs: mustprogress nofree norecurse nosync nounwind willreturn memory(argmem: read) uwtable
define hidden noundef i64 @_ZNK2os9PageSizes12next_smallerEm(ptr nocapture noundef nonnull readonly align 8 dereferenceable(8) %0, i64 noundef %1) local_unnamed_addr #19 align 2 {
  %3 = load i64, ptr %0, align 8
  %4 = add i64 %1, -1
  %5 = and i64 %3, %4
  %6 = icmp eq i64 %5, 0
  %7 = tail call range(i64 0, 65) i64 @llvm.ctlz.i64(i64 %5, i1 true)
  %8 = xor i64 %7, 63
  %9 = shl nuw i64 1, %8
  %.0 = select i1 %6, i64 0, i64 %9
  ret i64 %.0
}